target datalayout = "e-m:e-p270:32:32-p271:32:32-p272:64:64-i64:64-i128:128-f80:128-n8:16:32:64-S128"
target triple = "x86_64-unknown-linux-gnu"

%"class.grpc_event_engine::experimental::PosixEngineListenerImpl" = type { %"class.std::enable_shared_from_this", %"class.absl::lts_20230802::Mutex", ptr, %"struct.grpc_event_engine::experimental::PosixTcpOptions", %"class.std::shared_ptr", [8 x i8], %"class.grpc_event_engine::experimental::PosixEngineListenerImpl::ListenerAsyncAcceptors", %"class.absl::lts_20230802::AnyInvocable", %"class.absl::lts_20230802::AnyInvocable.0", i8, %"class.std::unique_ptr" }
%"class.std::enable_shared_from_this" = type { %"class.std::weak_ptr" }
%"class.std::weak_ptr" = type { %"class.std::__weak_ptr" }
%"class.std::__weak_ptr" = type { ptr, %"class.std::__weak_count" }
%"class.std::__weak_count" = type { ptr }
%"class.absl::lts_20230802::Mutex" = type { %"struct.std::atomic" }
%"struct.std::atomic" = type { %"struct.std::__atomic_base" }
%"struct.std::__atomic_base" = type { i64 }
%"struct.grpc_event_engine::experimental::PosixTcpOptions" = type { i32, i32, i32, i32, i32, i32, i8, i32, i32, i8, i8, i32, %"class.grpc_core::RefCountedPtr", ptr, ptr }
%"class.grpc_core::RefCountedPtr" = type { ptr }
%"class.std::shared_ptr" = type { %"class.std::__shared_ptr" }
%"class.std::__shared_ptr" = type { ptr, %"class.std::__shared_count" }
%"class.std::__shared_count" = type { ptr }
%"class.grpc_event_engine::experimental::PosixEngineListenerImpl::ListenerAsyncAcceptors" = type { %"class.grpc_event_engine::experimental::ListenerSocketsContainer", [8 x i8], %"class.absl::lts_20230802::AnyInvocable.5", %"class.std::__cxx11::list", ptr }
%"class.grpc_event_engine::experimental::ListenerSocketsContainer" = type { ptr }
%"class.absl::lts_20230802::AnyInvocable.5" = type { %"class.absl::lts_20230802::internal_any_invocable::Impl.6" }
%"class.absl::lts_20230802::internal_any_invocable::Impl.6" = type { %"class.absl::lts_20230802::internal_any_invocable::CoreImpl.7" }
%"class.absl::lts_20230802::internal_any_invocable::CoreImpl.7" = type { %"union.absl::lts_20230802::internal_any_invocable::TypeErasedState", ptr, ptr }
%"union.absl::lts_20230802::internal_any_invocable::TypeErasedState" = type { %struct.anon }
%struct.anon = type { ptr, i64 }
%"class.std::__cxx11::list" = type { %"class.std::__cxx11::_List_base" }
%"class.std::__cxx11::_List_base" = type { %"struct.std::__cxx11::_List_base<grpc_event_engine::experimental::PosixEngineListenerImpl::AsyncConnectionAcceptor *, std::allocator<grpc_event_engine::experimental::PosixEngineListenerImpl::AsyncConnectionAcceptor *>>::_List_impl" }
%"struct.std::__cxx11::_List_base<grpc_event_engine::experimental::PosixEngineListenerImpl::AsyncConnectionAcceptor *, std::allocator<grpc_event_engine::experimental::PosixEngineListenerImpl::AsyncConnectionAcceptor *>>::_List_impl" = type { %"struct.std::__detail::_List_node_header" }
%"struct.std::__detail::_List_node_header" = type { %"struct.std::__detail::_List_node_base", i64 }
%"struct.std::__detail::_List_node_base" = type { ptr, ptr }
%"class.absl::lts_20230802::AnyInvocable" = type { %"class.absl::lts_20230802::internal_any_invocable::Impl" }
%"class.absl::lts_20230802::internal_any_invocable::Impl" = type { %"class.absl::lts_20230802::internal_any_invocable::CoreImpl" }
%"class.absl::lts_20230802::internal_any_invocable::CoreImpl" = type { %"union.absl::lts_20230802::internal_any_invocable::TypeErasedState", ptr, ptr }
%"class.absl::lts_20230802::AnyInvocable.0" = type { %"class.absl::lts_20230802::internal_any_invocable::Impl.1" }
%"class.absl::lts_20230802::internal_any_invocable::Impl.1" = type { %"class.absl::lts_20230802::internal_any_invocable::CoreImpl.2" }
%"class.absl::lts_20230802::internal_any_invocable::CoreImpl.2" = type { %"union.absl::lts_20230802::internal_any_invocable::TypeErasedState", ptr, ptr }
%"class.std::unique_ptr" = type { %"struct.std::__uniq_ptr_data" }
%"struct.std::__uniq_ptr_data" = type { %"class.std::__uniq_ptr_impl" }
%"class.std::__uniq_ptr_impl" = type { %"class.std::tuple" }
%"class.std::tuple" = type { %"struct.std::_Tuple_impl" }
%"struct.std::_Tuple_impl" = type { %"struct.std::_Head_base.4" }
%"struct.std::_Head_base.4" = type { ptr }
%"class.absl::lts_20230802::MutexLock" = type { ptr }
%"struct.std::_List_const_iterator" = type { ptr }
%"struct.std::_List_iterator" = type { ptr }
%"struct.std::_List_node" = type { %"struct.std::__detail::_List_node_base", %"struct.__gnu_cxx::__aligned_membuf" }
%"struct.__gnu_cxx::__aligned_membuf" = type { [8 x i8] }

; Function Attrs: mustprogress nounwind uwtable
define linkonce_odr noundef ptr @_ZNK9__gnu_cxx16__aligned_membufIPN17grpc_event_engine12experimental23PosixEngineListenerImpl23AsyncConnectionAcceptorEE7_M_addrEv(ptr noundef nonnull align 8 dereferenceable(8) %this) #5 comdat align 2 {
entry:
  %this.addr = alloca ptr, align 8
  store ptr %this, ptr %this.addr, align 8
  %this1 = load ptr, ptr %this.addr, align 8
  %_M_storage = getelementptr inbounds %"struct.__gnu_cxx::__aligned_membuf", ptr %this1, i32 0, i32 0
  ret ptr %_M_storage
}

; Function Attrs: mustprogress nounwind uwtable
define linkonce_odr noundef ptr @_ZNK9__gnu_cxx16__aligned_membufIPN17grpc_event_engine12experimental23PosixEngineListenerImpl23AsyncConnectionAcceptorEE6_M_ptrEv(ptr noundef nonnull align 8 dereferenceable(8) %this) #5 comdat align 2 {
entry:
  %this.addr = alloca ptr, align 8
  store ptr %this, ptr %this.addr, align 8
  %this1 = load ptr, ptr %this.addr, align 8
  %call = call noundef ptr @_ZNK9__gnu_cxx16__aligned_membufIPN17grpc_event_engine12experimental23PosixEngineListenerImpl23AsyncConnectionAcceptorEE7_M_addrEv(ptr noundef nonnull align 8 dereferenceable(8) %this1) #3
  ret ptr %call
}

; Function Attrs: mustprogress nounwind uwtable
define linkonce_odr void @_ZNSt14_List_iteratorIPN17grpc_event_engine12experimental23PosixEngineListenerImpl23AsyncConnectionAcceptorEEC2EPNSt8__detail15_List_node_baseE(ptr noundef nonnull align 8 dereferenceable(8) %this, ptr noundef %__x) unnamed_addr #5 comdat align 2 {
entry:
  %this.addr = alloca ptr, align 8
  %__x.addr = alloca ptr, align 8
  store ptr %this, ptr %this.addr, align 8
  store ptr %__x, ptr %__x.addr, align 8
  %this1 = load ptr, ptr %this.addr, align 8
  %_M_node = getelementptr inbounds %"struct.std::_List_iterator", ptr %this1, i32 0, i32 0
  %0 = load ptr, ptr %__x.addr, align 8
  store ptr %0, ptr %_M_node, align 8
  ret void
}

; Function Attrs: mustprogress nounwind uwtable
define linkonce_odr noundef ptr @_ZNKSt10_List_nodeIPN17grpc_event_engine12experimental23PosixEngineListenerImpl23AsyncConnectionAcceptorEE9_M_valptrEv(ptr noundef nonnull align 8 dereferenceable(24) %this) #5 comdat align 2 {
entry:
  %this.addr = alloca ptr, align 8
  store ptr %this, ptr %this.addr, align 8
  %this1 = load ptr, ptr %this.addr, align 8
  %_M_storage = getelementptr inbounds %"struct.std::_List_node", ptr %this1, i32 0, i32 1
  %call = call noundef ptr @_ZNK9__gnu_cxx16__aligned_membufIPN17grpc_event_engine12experimental23PosixEngineListenerImpl23AsyncConnectionAcceptorEE6_M_ptrEv(ptr noundef nonnull align 8 dereferenceable(8) %_M_storage) #3
  ret ptr %call
}

; Function Attrs: mustprogress nounwind uwtable
define linkonce_odr ptr @_ZNSt7__cxx114listIPN17grpc_event_engine12experimental23PosixEngineListenerImpl23AsyncConnectionAcceptorESaIS5_EE3endEv(ptr noundef nonnull align 8 dereferenceable(24) %this) #5 comdat align 2 {
entry:
  %retval = alloca %"struct.std::_List_iterator", align 8
  %this.addr = alloca ptr, align 8
  store ptr %this, ptr %this.addr, align 8
  %this1 = load ptr, ptr %this.addr, align 8
  %_M_impl = getelementptr inbounds %"class.std::__cxx11::_List_base", ptr %this1, i32 0, i32 0
  %_M_node = getelementptr inbounds %"struct.std::__cxx11::_List_base<grpc_event_engine::experimental::PosixEngineListenerImpl::AsyncConnectionAcceptor *, std::allocator<grpc_event_engine::experimental::PosixEngineListenerImpl::AsyncConnectionAcceptor *>>::_List_impl", ptr %_M_impl, i32 0, i32 0
  call void @_ZNSt14_List_iteratorIPN17grpc_event_engine12experimental23PosixEngineListenerImpl23AsyncConnectionAcceptorEEC2EPNSt8__detail15_List_node_baseE(ptr noundef nonnull align 8 dereferenceable(8) %retval, ptr noundef %_M_node) #3
  %coerce.dive = getelementptr inbounds %"struct.std::_List_iterator", ptr %retval, i32 0, i32 0
  %0 = load ptr, ptr %coerce.dive, align 8
  ret ptr %0
}

; Function Attrs: mustprogress nounwind uwtable
define linkonce_odr void @_ZNSt20_List_const_iteratorIPN17grpc_event_engine12experimental23PosixEngineListenerImpl23AsyncConnectionAcceptorEEC2ERKSt14_List_iteratorIS4_E(ptr noundef nonnull align 8 dereferenceable(8) %this, ptr noundef nonnull align 8 dereferenceable(8) %__x) unnamed_addr #5 comdat align 2 {
entry:
  %this.addr = alloca ptr, align 8
  %__x.addr = alloca ptr, align 8
  store ptr %this, ptr %this.addr, align 8
  store ptr %__x, ptr %__x.addr, align 8
  %this1 = load ptr, ptr %this.addr, align 8
  %_M_node = getelementptr inbounds %"struct.std::_List_const_iterator", ptr %this1, i32 0, i32 0
  %0 = load ptr, ptr %__x.addr, align 8
  %_M_node2 = getelementptr inbounds %"struct.std::_List_iterator", ptr %0, i32 0, i32 0
  %1 = load ptr, ptr %_M_node2, align 8
  store ptr %1, ptr %_M_node, align 8
  ret void
}

; Function Attrs: mustprogress nounwind uwtable
define linkonce_odr ptr @_ZNSt7__cxx114listIPN17grpc_event_engine12experimental23PosixEngineListenerImpl23AsyncConnectionAcceptorESaIS5_EE5beginEv(ptr noundef nonnull align 8 dereferenceable(24) %this) #5 comdat align 2 {
entry:
  %retval = alloca %"struct.std::_List_iterator", align 8
  %this.addr = alloca ptr, align 8
  store ptr %this, ptr %this.addr, align 8
  %this1 = load ptr, ptr %this.addr, align 8
  %_M_impl = getelementptr inbounds %"class.std::__cxx11::_List_base", ptr %this1, i32 0, i32 0
  %_M_node = getelementptr inbounds %"struct.std::__cxx11::_List_base<grpc_event_engine::experimental::PosixEngineListenerImpl::AsyncConnectionAcceptor *, std::allocator<grpc_event_engine::experimental::PosixEngineListenerImpl::AsyncConnectionAcceptor *>>::_List_impl", ptr %_M_impl, i32 0, i32 0
  %_M_next = getelementptr inbounds %"struct.std::__detail::_List_node_base", ptr %_M_node, i32 0, i32 0
  %0 = load ptr, ptr %_M_next, align 8
  call void @_ZNSt14_List_iteratorIPN17grpc_event_engine12experimental23PosixEngineListenerImpl23AsyncConnectionAcceptorEEC2EPNSt8__detail15_List_node_baseE(ptr noundef nonnull align 8 dereferenceable(8) %retval, ptr noundef %0) #3
  %coerce.dive = getelementptr inbounds %"struct.std::_List_iterator", ptr %retval, i32 0, i32 0
  %1 = load ptr, ptr %coerce.dive, align 8
  ret ptr %1
}

; Function Attrs: mustprogress nounwind uwtable
define linkonce_odr void @_ZN4absl12lts_202308029MutexLockD2Ev(ptr noundef nonnull align 8 dereferenceable(8) %this) unnamed_addr #5 comdat align 2 personality ptr @__gxx_personality_v0 {
entry:
  %this.addr = alloca ptr, align 8
  store ptr %this, ptr %this.addr, align 8
  %this1 = load ptr, ptr %this.addr, align 8
  %mu_ = getelementptr inbounds %"class.absl::lts_20230802::MutexLock", ptr %this1, i32 0, i32 0
  %0 = load ptr, ptr %mu_, align 8
  invoke void @_ZN4absl12lts_202308025Mutex6UnlockEv(ptr noundef nonnull align 8 dereferenceable(8) %0)
          to label %invoke.cont unwind label %terminate.lpad

invoke.cont:                                      ; preds = %entry
  ret void

terminate.lpad:                                   ; preds = %entry
  %1 = landingpad { ptr, i32 }
          catch ptr null
  %2 = extractvalue { ptr, i32 } %1, 0
  call void @__clang_call_terminate(ptr %2) #18
  unreachable
}

; Function Attrs: mustprogress nounwind uwtable
define linkonce_odr ptr @_ZNSt20_List_const_iteratorIPN17grpc_event_engine12experimental23PosixEngineListenerImpl23AsyncConnectionAcceptorEEppEi(ptr noundef nonnull align 8 dereferenceable(8) %this, i32 noundef %0) #5 comdat align 2 {
entry:
  %retval = alloca %"struct.std::_List_const_iterator", align 8
  %this.addr = alloca ptr, align 8
  %.addr = alloca i32, align 4
  store ptr %this, ptr %this.addr, align 8
  store i32 %0, ptr %.addr, align 4
  %this1 = load ptr, ptr %this.addr, align 8
  call void @llvm.memcpy.p0.p0.i64(ptr align 8 %retval, ptr align 8 %this1, i64 8, i1 false)
  %_M_node = getelementptr inbounds %"struct.std::_List_const_iterator", ptr %this1, i32 0, i32 0
  %1 = load ptr, ptr %_M_node, align 8
  %_M_next = getelementptr inbounds %"struct.std::__detail::_List_node_base", ptr %1, i32 0, i32 0
  %2 = load ptr, ptr %_M_next, align 8
  %_M_node2 = getelementptr inbounds %"struct.std::_List_const_iterator", ptr %this1, i32 0, i32 0
  store ptr %2, ptr %_M_node2, align 8
  %coerce.dive = getelementptr inbounds %"struct.std::_List_const_iterator", ptr %retval, i32 0, i32 0
  %3 = load ptr, ptr %coerce.dive, align 8
  ret ptr %3
}

; Function Attrs: mustprogress nounwind uwtable
define linkonce_odr noundef nonnull align 8 dereferenceable(8) ptr @_ZNKSt20_List_const_iteratorIPN17grpc_event_engine12experimental23PosixEngineListenerImpl23AsyncConnectionAcceptorEEdeEv(ptr noundef nonnull align 8 dereferenceable(8) %this) #5 comdat align 2 personality ptr @__gxx_personality_v0 {
entry:
  %this.addr = alloca ptr, align 8
  store ptr %this, ptr %this.addr, align 8
  %this1 = load ptr, ptr %this.addr, align 8
  %_M_node = getelementptr inbounds %"struct.std::_List_const_iterator", ptr %this1, i32 0, i32 0
  %0 = load ptr, ptr %_M_node, align 8
  %call = invoke noundef ptr @_ZNKSt10_List_nodeIPN17grpc_event_engine12experimental23PosixEngineListenerImpl23AsyncConnectionAcceptorEE9_M_valptrEv(ptr noundef nonnull align 8 dereferenceable(24) %0)
          to label %invoke.cont unwind label %terminate.lpad

invoke.cont:                                      ; preds = %entry
  ret ptr %call

terminate.lpad:                                   ; preds = %entry
  %1 = landingpad { ptr, i32 }
          catch ptr null
  %2 = extractvalue { ptr, i32 } %1, 0
  call void @__clang_call_terminate(ptr %2) #18
  unreachable
}

; Function Attrs: mustprogress nounwind uwtable
define linkonce_odr noundef zeroext i1 @_ZStneRKSt20_List_const_iteratorIPN17grpc_event_engine12experimental23PosixEngineListenerImpl23AsyncConnectionAcceptorEES7_(ptr noundef nonnull align 8 dereferenceable(8) %__x, ptr noundef nonnull align 8 dereferenceable(8) %__y) #5 comdat {
entry:
  %__x.addr = alloca ptr, align 8
  %__y.addr = alloca ptr, align 8
  store ptr %__x, ptr %__x.addr, align 8
  store ptr %__y, ptr %__y.addr, align 8
  %0 = load ptr, ptr %__x.addr, align 8
  %_M_node = getelementptr inbounds %"struct.std::_List_const_iterator", ptr %0, i32 0, i32 0
  %1 = load ptr, ptr %_M_node, align 8
  %2 = load ptr, ptr %__y.addr, align 8
  %_M_node1 = getelementptr inbounds %"struct.std::_List_const_iterator", ptr %2, i32 0, i32 0
  %3 = load ptr, ptr %_M_node1, align 8
  %cmp = icmp ne ptr %1, %3
  ret i1 %cmp
}

; Function Attrs: mustprogress nounwind uwtable
define linkonce_odr ptr @_ZN17grpc_event_engine12experimental23PosixEngineListenerImpl22ListenerAsyncAcceptors3endEv(ptr noundef nonnull align 16 dereferenceable(80) %this) #5 comdat align 2 {
entry:
  %retval = alloca %"struct.std::_List_const_iterator", align 8
  %this.addr = alloca ptr, align 8
  %ref.tmp = alloca %"struct.std::_List_iterator", align 8
  store ptr %this, ptr %this.addr, align 8
  %this1 = load ptr, ptr %this.addr, align 8
  %acceptors_ = getelementptr inbounds %"class.grpc_event_engine::experimental::PosixEngineListenerImpl::ListenerAsyncAcceptors", ptr %this1, i32 0, i32 3
  %call = call ptr @_ZNSt7__cxx114listIPN17grpc_event_engine12experimental23PosixEngineListenerImpl23AsyncConnectionAcceptorESaIS5_EE3endEv(ptr noundef nonnull align 8 dereferenceable(24) %acceptors_) #3
  %coerce.dive = getelementptr inbounds %"struct.std::_List_iterator", ptr %ref.tmp, i32 0, i32 0
  store ptr %call, ptr %coerce.dive, align 8
  call void @_ZNSt20_List_const_iteratorIPN17grpc_event_engine12experimental23PosixEngineListenerImpl23AsyncConnectionAcceptorEEC2ERKSt14_List_iteratorIS4_E(ptr noundef nonnull align 8 dereferenceable(8) %retval, ptr noundef nonnull align 8 dereferenceable(8) %ref.tmp) #3
  %coerce.dive2 = getelementptr inbounds %"struct.std::_List_const_iterator", ptr %retval, i32 0, i32 0
  %0 = load ptr, ptr %coerce.dive2, align 8
  ret ptr %0
}

; Function Attrs: mustprogress nounwind uwtable
define linkonce_odr ptr @_ZN17grpc_event_engine12experimental23PosixEngineListenerImpl22ListenerAsyncAcceptors5beginEv(ptr noundef nonnull align 16 dereferenceable(80) %this) #5 comdat align 2 {
entry:
  %retval = alloca %"struct.std::_List_const_iterator", align 8
  %this.addr = alloca ptr, align 8
  %ref.tmp = alloca %"struct.std::_List_iterator", align 8
  store ptr %this, ptr %this.addr, align 8
  %this1 = load ptr, ptr %this.addr, align 8
  %acceptors_ = getelementptr inbounds %"class.grpc_event_engine::experimental::PosixEngineListenerImpl::ListenerAsyncAcceptors", ptr %this1, i32 0, i32 3
  %call = call ptr @_ZNSt7__cxx114listIPN17grpc_event_engine12experimental23PosixEngineListenerImpl23AsyncConnectionAcceptorESaIS5_EE5beginEv(ptr noundef nonnull align 8 dereferenceable(24) %acceptors_) #3
  %coerce.dive = getelementptr inbounds %"struct.std::_List_iterator", ptr %ref.tmp, i32 0, i32 0
  store ptr %call, ptr %coerce.dive, align 8
  call void @_ZNSt20_List_const_iteratorIPN17grpc_event_engine12experimental23PosixEngineListenerImpl23AsyncConnectionAcceptorEEC2ERKSt14_List_iteratorIS4_E(ptr noundef nonnull align 8 dereferenceable(8) %retval, ptr noundef nonnull align 8 dereferenceable(8) %ref.tmp) #3
  %coerce.dive2 = getelementptr inbounds %"struct.std::_List_const_iterator", ptr %retval, i32 0, i32 0
  %0 = load ptr, ptr %coerce.dive2, align 8
  ret ptr %0
}

; Function Attrs: mustprogress uwtable
define linkonce_odr void @_ZN4absl12lts_202308029MutexLockC2EPNS0_5MutexE(ptr noundef nonnull align 8 dereferenceable(8) %this, ptr noundef %mu) unnamed_addr #4 comdat align 2 {
entry:
  %this.addr = alloca ptr, align 8
  %mu.addr = alloca ptr, align 8
  store ptr %this, ptr %this.addr, align 8
  store ptr %mu, ptr %mu.addr, align 8
  %this1 = load ptr, ptr %this.addr, align 8
  %mu_ = getelementptr inbounds %"class.absl::lts_20230802::MutexLock", ptr %this1, i32 0, i32 0
  %0 = load ptr, ptr %mu.addr, align 8
  store ptr %0, ptr %mu_, align 8
  %mu_2 = getelementptr inbounds %"class.absl::lts_20230802::MutexLock", ptr %this1, i32 0, i32 0
  %1 = load ptr, ptr %mu_2, align 8
  call void @_ZN4absl12lts_202308025Mutex4LockEv(ptr noundef nonnull align 8 dereferenceable(8) %1)
  ret void
}

; Function Attrs: mustprogress uwtable
define void @_ZN17grpc_event_engine12experimental23PosixEngineListenerImpl15TriggerShutdownEv(ptr noundef nonnull align 16 dereferenceable(288) %this) #4 align 2 personality ptr @__gxx_personality_v0 {
entry:
  %this.addr = alloca ptr, align 8
  %lock = alloca %"class.absl::lts_20230802::MutexLock", align 8
  %it = alloca %"struct.std::_List_const_iterator", align 8
  %exn.slot = alloca ptr, align 8
  %ehselector.slot = alloca i32, align 4
  %ref.tmp = alloca %"struct.std::_List_const_iterator", align 8
  %coerce = alloca %"struct.std::_List_const_iterator", align 8
  store ptr %this, ptr %this.addr, align 8
  %this1 = load ptr, ptr %this.addr, align 8
  %mu_ = getelementptr inbounds %"class.grpc_event_engine::experimental::PosixEngineListenerImpl", ptr %this1, i32 0, i32 1
  call void @_ZN4absl12lts_202308029MutexLockC2EPNS0_5MutexE(ptr noundef nonnull align 8 dereferenceable(8) %lock, ptr noundef %mu_)
  %acceptors_ = getelementptr inbounds %"class.grpc_event_engine::experimental::PosixEngineListenerImpl", ptr %this1, i32 0, i32 6
  %call = invoke ptr @_ZN17grpc_event_engine12experimental23PosixEngineListenerImpl22ListenerAsyncAcceptors5beginEv(ptr noundef nonnull align 16 dereferenceable(80) %acceptors_)
          to label %invoke.cont unwind label %lpad

invoke.cont:                                      ; preds = %entry
  %coerce.dive = getelementptr inbounds %"struct.std::_List_const_iterator", ptr %it, i32 0, i32 0
  store ptr %call, ptr %coerce.dive, align 8
  br label %for.cond

for.cond:                                         ; preds = %for.inc, %invoke.cont
  %acceptors_2 = getelementptr inbounds %"class.grpc_event_engine::experimental::PosixEngineListenerImpl", ptr %this1, i32 0, i32 6
  %call4 = invoke ptr @_ZN17grpc_event_engine12experimental23PosixEngineListenerImpl22ListenerAsyncAcceptors3endEv(ptr noundef nonnull align 16 dereferenceable(80) %acceptors_2)
          to label %invoke.cont3 unwind label %lpad

invoke.cont3:                                     ; preds = %for.cond
  %coerce.dive5 = getelementptr inbounds %"struct.std::_List_const_iterator", ptr %ref.tmp, i32 0, i32 0
  store ptr %call4, ptr %coerce.dive5, align 8
  %call6 = call noundef zeroext i1 @_ZStneRKSt20_List_const_iteratorIPN17grpc_event_engine12experimental23PosixEngineListenerImpl23AsyncConnectionAcceptorEES7_(ptr noundef nonnull align 8 dereferenceable(8) %it, ptr noundef nonnull align 8 dereferenceable(8) %ref.tmp) #3
  br i1 %call6, label %for.body, label %for.end

for.body:                                         ; preds = %invoke.cont3
  %call7 = call noundef nonnull align 8 dereferenceable(8) ptr @_ZNKSt20_List_const_iteratorIPN17grpc_event_engine12experimental23PosixEngineListenerImpl23AsyncConnectionAcceptorEEdeEv(ptr noundef nonnull align 8 dereferenceable(8) %it) #3
  %0 = load ptr, ptr %call7, align 8
  invoke void @_ZN17grpc_event_engine12experimental23PosixEngineListenerImpl23AsyncConnectionAcceptor8ShutdownEv(ptr noundef nonnull align 8 dereferenceable(209) %0)
          to label %invoke.cont8 unwind label %lpad

invoke.cont8:                                     ; preds = %for.body
  br label %for.inc

for.inc:                                          ; preds = %invoke.cont8
  %call9 = call ptr @_ZNSt20_List_const_iteratorIPN17grpc_event_engine12experimental23PosixEngineListenerImpl23AsyncConnectionAcceptorEEppEi(ptr noundef nonnull align 8 dereferenceable(8) %it, i32 noundef 0) #3
  %coerce.dive10 = getelementptr inbounds %"struct.std::_List_const_iterator", ptr %coerce, i32 0, i32 0
  store ptr %call9, ptr %coerce.dive10, align 8
  br label %for.cond, !llvm.loop !8

lpad:                                             ; preds = %for.body, %for.cond, %entry
  %1 = landingpad { ptr, i32 }
          cleanup
  %2 = extractvalue { ptr, i32 } %1, 0
  store ptr %2, ptr %exn.slot, align 8
  %3 = extractvalue { ptr, i32 } %1, 1
  store i32 %3, ptr %ehselector.slot, align 4
  call void @_ZN4absl12lts_202308029MutexLockD2Ev(ptr noundef nonnull align 8 dereferenceable(8) %lock) #3
  br label %eh.resume

for.end:                                          ; preds = %invoke.cont3
  call void @_ZN4absl12lts_202308029MutexLockD2Ev(ptr noundef nonnull align 8 dereferenceable(8) %lock) #3
  ret void

eh.resume:                                        ; preds = %lpad
  %exn = load ptr, ptr %exn.slot, align 8
  %sel = load i32, ptr %ehselector.slot, align 4
  %lpad.val = insertvalue { ptr, i32 } poison, ptr %exn, 0
  %lpad.val11 = insertvalue { ptr, i32 } %lpad.val, i32 %sel, 1
  resume { ptr, i32 } %lpad.val11
}