; Function Attrs: mustprogress uwtable
define void @_ZN17grpc_event_engine12experimental23PosixEngineListenerImpl15TriggerShutdownEv(ptr noundef nonnull align 16 dereferenceable(288) %this) local_unnamed_addr #3 align 2 personality ptr @__gxx_personality_v0 {
entry:
  %mu_ = getelementptr inbounds i8, ptr %this, i64 16
  tail call void @_ZN4absl12lts_202308025Mutex4LockEv(ptr noundef nonnull align 8 dereferenceable(8) %mu_)
  %acceptors_.i = getelementptr inbounds i8, ptr %this, i64 176
  br label %for.cond

for.cond:                                         ; preds = %for.body, %entry
  %it.sroa.0.0.in = phi ptr [ %acceptors_.i, %entry ], [ %it.sroa.0.0, %for.body ]
  %it.sroa.0.0 = load ptr, ptr %it.sroa.0.0.in, align 8
  %cmp.i.not = icmp eq ptr %it.sroa.0.0, %acceptors_.i
  br i1 %cmp.i.not, label %for.end, label %for.body

for.body:                                         ; preds = %for.cond
  %_M_storage.i.i = getelementptr inbounds i8, ptr %it.sroa.0.0, i64 16
  %0 = load ptr, ptr %_M_storage.i.i, align 8
  invoke void @_ZN17grpc_event_engine12experimental23PosixEngineListenerImpl23AsyncConnectionAcceptor8ShutdownEv(ptr noundef nonnull align 8 dereferenceable(209) %0)
          to label %for.cond unwind label %lpad, !llvm.loop !19

lpad:                                             ; preds = %for.body
  %1 = landingpad { ptr, i32 }
          cleanup
  invoke void @_ZN4absl12lts_202308025Mutex6UnlockEv(ptr noundef nonnull align 8 dereferenceable(8) %mu_)
          to label %_ZN4absl12lts_202308029MutexLockD2Ev.exit unwind label %terminate.lpad.i

terminate.lpad.i:                                 ; preds = %lpad
  %2 = landingpad { ptr, i32 }
          catch ptr null
  %3 = extractvalue { ptr, i32 } %2, 0
  tail call void @__clang_call_terminate(ptr %3) #22
  unreachable

_ZN4absl12lts_202308029MutexLockD2Ev.exit:        ; preds = %lpad
  resume { ptr, i32 } %1

for.end:                                          ; preds = %for.cond
  invoke void @_ZN4absl12lts_202308025Mutex6UnlockEv(ptr noundef nonnull align 8 dereferenceable(8) %mu_)
          to label %_ZN4absl12lts_202308029MutexLockD2Ev.exit3 unwind label %terminate.lpad.i2

terminate.lpad.i2:                                ; preds = %for.end
  %4 = landingpad { ptr, i32 }
          catch ptr null
  %5 = extractvalue { ptr, i32 } %4, 0
  tail call void @__clang_call_terminate(ptr %5) #22
  unreachable

_ZN4absl12lts_202308029MutexLockD2Ev.exit3:       ; preds = %for.end
  ret void
}